; Function Attrs: mustprogress nofree norecurse nounwind willreturn memory(argmem: readwrite) uwtable
define noundef double @_ZNK7rocksdb13HistogramImpl17StandardDeviationEv(ptr noundef nonnull readonly align 8 captures(none) dereferenceable(968) %0) unnamed_addr #6 align 2 personality ptr @__gxx_personality_v0 {
  %2 = getelementptr inbounds nuw i8, ptr %0, i64 24
  %3 = load atomic i64, ptr %2 monotonic, align 8
  %4 = getelementptr inbounds nuw i8, ptr %0, i64 32
  %5 = load atomic i64, ptr %4 monotonic, align 8
  %6 = getelementptr inbounds nuw i8, ptr %0, i64 40
  %7 = load atomic i64, ptr %6 monotonic, align 8
  %8 = icmp eq i64 %3, 0
  br i1 %8, label %_ZNK7rocksdb13HistogramStat17StandardDeviationEv.exit, label %9

9:                                                ; preds = %1
  %10 = uitofp i64 %3 to double
  %11 = uitofp i64 %7 to double
  %12 = uitofp i64 %5 to double
  %13 = fneg double %12
  %14 = fmul double %12, %13
  %15 = tail call double @llvm.fmuladd.f64(double %11, double %10, double %14)
  %16 = fmul double %10, %10
  %17 = fdiv double %15, %16
  %18 = fcmp olt double %17, 0.000000e+00
  %.sroa.speculated.i = select i1 %18, double 0.000000e+00, double %17
  %sqrt.i = tail call double @llvm.sqrt.f64(double %.sroa.speculated.i)
  br label %_ZNK7rocksdb13HistogramStat17StandardDeviationEv.exit

_ZNK7rocksdb13HistogramStat17StandardDeviationEv.exit: ; preds = %1, %9
  %.0.i = phi double [ %sqrt.i, %9 ], [ 0.000000e+00, %1 ]
  ret double %.0.i
}